; Function Attrs: mustprogress uwtable
define hidden noundef ptr @_ZN7datalog11udoc_plugin36mk_filter_interpreted_and_project_fnERKNS_13relation_baseEP3appjPKj(ptr noundef nonnull readonly align 8 captures(address) dereferenceable(129) %0, ptr noundef nonnull align 8 dereferenceable(28) %1, ptr noundef %2, i32 noundef %3, ptr noundef %4) unnamed_addr #3 align 2 {
  %6 = getelementptr inbounds nuw i8, ptr %1, i64 8
  %7 = load ptr, ptr %6, align 8, !tbaa !167
  %8 = icmp eq ptr %7, %0
  br i1 %8, label %9, label %17

9:                                                ; preds = %5
  %10 = tail call noalias noundef ptr @_ZN6memory8allocateEm(i64 noundef 360)
  %11 = tail call ptr @__dynamic_cast(ptr nonnull readonly align 8 dereferenceable(28) %1, ptr nonnull @_ZTIN7datalog13relation_baseE, ptr nonnull @_ZTIN7datalog13udoc_relationE, i64 0) #24
  %12 = icmp eq ptr %11, null
  br i1 %12, label %13, label %_ZN7datalog11udoc_plugin3getERKNS_13relation_baseE.exit

13:                                               ; preds = %9
  tail call void @__cxa_bad_cast() #25
  unreachable

_ZN7datalog11udoc_plugin3getERKNS_13relation_baseE.exit: ; preds = %9
  %14 = getelementptr inbounds nuw i8, ptr %0, i64 24
  %15 = load ptr, ptr %14, align 8, !tbaa !206
  %16 = tail call noundef nonnull align 8 dereferenceable(976) ptr @_ZN7datalog32get_ast_manager_from_rel_managerERKNS_16relation_managerE(ptr noundef nonnull align 8 dereferenceable(200) %15)
  tail call void @_ZN7datalog11udoc_plugin14filter_proj_fnC2ERKNS_13udoc_relationER11ast_managerP3appjPKj(ptr noundef nonnull align 8 dereferenceable(360) %10, ptr noundef nonnull align 8 dereferenceable(128) %11, ptr noundef nonnull align 8 dereferenceable(976) %16, ptr noundef %2, i32 noundef %3, ptr noundef %4)
  br label %17

17:                                               ; preds = %5, %_ZN7datalog11udoc_plugin3getERKNS_13relation_baseE.exit
  %18 = phi ptr [ %10, %_ZN7datalog11udoc_plugin3getERKNS_13relation_baseE.exit ], [ null, %5 ]
  ret ptr %18
}